; Function Attrs: nounwind sspstrong uwtable
define hidden void @rb_ractor_send_parameters(ptr noundef readonly captures(none) %0, ptr noundef %1, i64 noundef %2) local_unnamed_addr #0 {
  %4 = inttoptr i64 %2 to ptr
  %5 = load i64, ptr %4, align 8, !tbaa !83
  %6 = and i64 %5, 8192
  %.not.i.i = icmp eq i64 %6, 0
  br i1 %.not.i.i, label %10, label %7

7:                                                ; preds = %3
  %8 = lshr i64 %5, 15
  %9 = and i64 %8, 127
  br label %rb_array_len.exit.i

10:                                               ; preds = %3
  %11 = getelementptr inbounds nuw i8, ptr %4, i64 16
  %12 = load i64, ptr %11, align 8, !tbaa !100
  br label %rb_array_len.exit.i

rb_array_len.exit.i:                              ; preds = %10, %7
  %.0.i.i = phi i64 [ %9, %7 ], [ %12, %10 ]
  %13 = add i64 %.0.i.i, 2147483648
  %.not.i1.i = icmp ult i64 %13, 4294967296
  br i1 %.not.i1.i, label %RARRAY_LENINT.exit, label %14

14:                                               ; preds = %rb_array_len.exit.i
  tail call void @rb_out_of_int(i64 noundef %.0.i.i) #33
  unreachable

RARRAY_LENINT.exit:                               ; preds = %rb_array_len.exit.i
  %15 = trunc i64 %.0.i.i to i32
  %16 = icmp sgt i32 %15, 0
  br i1 %16, label %.lr.ph, label %._crit_edge

.lr.ph:                                           ; preds = %RARRAY_LENINT.exit
  %17 = getelementptr inbounds nuw i8, ptr %4, i64 16
  %18 = getelementptr inbounds nuw i8, ptr %4, i64 32
  %19 = getelementptr i8, ptr %0, i64 48
  %wide.trip.count = and i64 %.0.i.i, 2147483647
  br label %20

._crit_edge:                                      ; preds = %RARRAY_AREF.exit, %RARRAY_LENINT.exit
  ret void

20:                                               ; preds = %.lr.ph, %RARRAY_AREF.exit
  %indvars.iv = phi i64 [ 0, %.lr.ph ], [ %indvars.iv.next, %RARRAY_AREF.exit ]
  %21 = load i64, ptr %4, align 8, !tbaa !83
  %22 = and i64 %21, 8192
  %.not.i.i7 = icmp eq i64 %22, 0
  br i1 %.not.i.i7, label %23, label %RARRAY_AREF.exit

23:                                               ; preds = %20
  %24 = load ptr, ptr %18, align 8, !tbaa !100
  br label %RARRAY_AREF.exit

RARRAY_AREF.exit:                                 ; preds = %20, %23
  %.0.i.i8 = phi ptr [ %24, %23 ], [ %17, %20 ]
  %25 = getelementptr i64, ptr %.0.i.i8, i64 %indvars.iv
  %26 = load i64, ptr %25, align 8, !tbaa !80
  %.val = load ptr, ptr %19, align 8, !tbaa !90
  %27 = tail call fastcc i64 @ractor_send(ptr %.val, ptr noundef %1, i64 noundef %26, i64 noundef 0)
  %indvars.iv.next = add nuw nsw i64 %indvars.iv, 1
  %exitcond.not = icmp eq i64 %indvars.iv.next, %wide.trip.count
  br i1 %exitcond.not, label %._crit_edge, label %20, !llvm.loop !119
}